target datalayout = "e-m:e-p270:32:32-p271:32:32-p272:64:64-i64:64-i128:128-f80:128-n8:16:32:64-S128"
target triple = "x86_64-pc-linux-gnu"

%struct.NarrowPtrStruct = type { ptr, i32, i8 }
%class.ShenandoahReferenceProcessor = type { %class.ReferenceDiscoverer, ptr, ptr, ptr, ptr, i32, %class.ReferenceProcessorStats }
%class.ReferenceDiscoverer = type { ptr }
%class.ReferenceProcessorStats = type { i64, i64, i64, i64 }

@UseCompressedOops = external global i8, align 1
@_ZN14CompressedOops11_narrow_oopE = external global %struct.NarrowPtrStruct, align 8

; Function Attrs: mustprogress nounwind uwtable
define linkonce_odr hidden noundef i32 @_ZN14CompressedOops15narrow_oop_castImEE9narrowOopT_(i64 noundef %0) #1 comdat align 2 {
  %2 = alloca i64, align 8
  %3 = alloca i32, align 4
  store i64 %0, ptr %2, align 8
  %4 = load i64, ptr %2, align 8
  %5 = trunc i64 %4 to i32
  store i32 %5, ptr %3, align 4
  %6 = load i32, ptr %3, align 4
  ret i32 %6
}

; Function Attrs: mustprogress nounwind uwtable
define linkonce_odr hidden noundef i32 @_ZN14CompressedOops5shiftEv() #1 comdat align 2 {
  %1 = load i32, ptr getelementptr inbounds (%struct.NarrowPtrStruct, ptr @_ZN14CompressedOops11_narrow_oopE, i32 0, i32 1), align 8
  ret i32 %1
}

; Function Attrs: mustprogress nounwind uwtable
define linkonce_odr hidden noundef i64 @_Z13pointer_deltaPVKvS0_m(ptr noundef %0, ptr noundef %1, i64 noundef %2) #1 comdat {
  %4 = alloca ptr, align 8
  %5 = alloca ptr, align 8
  %6 = alloca i64, align 8
  store ptr %0, ptr %4, align 8
  store ptr %1, ptr %5, align 8
  store i64 %2, ptr %6, align 8
  %7 = load ptr, ptr %4, align 8
  %8 = ptrtoint ptr %7 to i64
  %9 = load ptr, ptr %5, align 8
  %10 = ptrtoint ptr %9 to i64
  %11 = sub i64 %8, %10
  %12 = load i64, ptr %6, align 8
  %13 = udiv i64 %11, %12
  ret i64 %13
}

; Function Attrs: mustprogress nounwind uwtable
define linkonce_odr hidden noundef ptr @_ZN14CompressedOops4baseEv() #1 comdat align 2 {
  %1 = load ptr, ptr @_ZN14CompressedOops11_narrow_oopE, align 8
  ret ptr %1
}

; Function Attrs: mustprogress nounwind uwtable
define linkonce_odr hidden noundef i32 @_ZN14CompressedOops15encode_not_nullEP7oopDesc(ptr noundef %0) #1 comdat align 2 {
  %2 = alloca ptr, align 8
  %3 = alloca i64, align 8
  %4 = alloca i32, align 4
  store ptr %0, ptr %2, align 8
  %5 = load ptr, ptr %2, align 8
  %6 = call noundef ptr @_ZN14CompressedOops4baseEv()
  %7 = call noundef i64 @_Z13pointer_deltaPVKvS0_m(ptr noundef %5, ptr noundef %6, i64 noundef 1)
  store i64 %7, ptr %3, align 8
  %8 = load i64, ptr %3, align 8
  %9 = call noundef i32 @_ZN14CompressedOops5shiftEv()
  %10 = zext i32 %9 to i64
  %11 = lshr i64 %8, %10
  %12 = call noundef i32 @_ZN14CompressedOops15narrow_oop_castImEE9narrowOopT_(i64 noundef %11)
  store i32 %12, ptr %4, align 4
  %13 = load i32, ptr %4, align 4
  ret i32 %13
}

; Function Attrs: mustprogress nounwind uwtable
define linkonce_odr hidden noundef zeroext i1 @_ZN14CompressedOops7is_nullEP7oopDesc(ptr noundef %0) #1 comdat align 2 {
  %2 = alloca ptr, align 8
  store ptr %0, ptr %2, align 8
  %3 = load ptr, ptr %2, align 8
  %4 = icmp eq ptr %3, null
  ret i1 %4
}

; Function Attrs: mustprogress nounwind uwtable
define linkonce_odr hidden noundef i32 @_ZN14CompressedOops6encodeEP7oopDesc(ptr noundef %0) #1 comdat align 2 {
  %2 = alloca ptr, align 8
  store ptr %0, ptr %2, align 8
  %3 = load ptr, ptr %2, align 8
  %4 = call noundef zeroext i1 @_ZN14CompressedOops7is_nullEP7oopDesc(ptr noundef %3)
  br i1 %4, label %5, label %6

5:                                                ; preds = %1
  br label %9

6:                                                ; preds = %1
  %7 = load ptr, ptr %2, align 8
  %8 = call noundef i32 @_ZN14CompressedOops15encode_not_nullEP7oopDesc(ptr noundef %7)
  br label %9

9:                                                ; preds = %6, %5
  %10 = phi i32 [ 0, %5 ], [ %8, %6 ]
  ret i32 %10
}

; Function Attrs: mustprogress nounwind uwtable
define hidden void @_ZN28ShenandoahReferenceProcessor25enqueue_references_lockedEv(ptr noundef nonnull align 8 dereferenceable(80) %0) #1 align 2 {
  %2 = alloca ptr, align 8
  store ptr %0, ptr %2, align 8
  %3 = load ptr, ptr %2, align 8
  %4 = load i8, ptr @UseCompressedOops, align 1
  %5 = trunc i8 %4 to i1
  br i1 %5, label %6, label %13

6:                                                ; preds = %1
  %7 = getelementptr inbounds %class.ShenandoahReferenceProcessor, ptr %3, i32 0, i32 3
  %8 = load ptr, ptr %7, align 8
  %9 = call noundef ptr @_ZN8Universe27swap_reference_pending_listEP7oopDesc(ptr noundef %8)
  %10 = call noundef i32 @_ZN14CompressedOops6encodeEP7oopDesc(ptr noundef %9)
  %11 = getelementptr inbounds %class.ShenandoahReferenceProcessor, ptr %3, i32 0, i32 4
  %12 = load ptr, ptr %11, align 8
  store i32 %10, ptr %12, align 4
  br label %19

13:                                               ; preds = %1
  %14 = getelementptr inbounds %class.ShenandoahReferenceProcessor, ptr %3, i32 0, i32 3
  %15 = load ptr, ptr %14, align 8
  %16 = call noundef ptr @_ZN8Universe27swap_reference_pending_listEP7oopDesc(ptr noundef %15)
  %17 = getelementptr inbounds %class.ShenandoahReferenceProcessor, ptr %3, i32 0, i32 4
  %18 = load ptr, ptr %17, align 8
  store ptr %16, ptr %18, align 8
  br label %19

19:                                               ; preds = %13, %6
  ret void
}