; Function Attrs: mustprogress nounwind uwtable
define hidden void @_ZN28ShenandoahReferenceProcessor25enqueue_references_lockedEv(ptr nocapture noundef nonnull readonly align 8 dereferenceable(80) %0) local_unnamed_addr #5 align 2 {
  %2 = load i8, ptr @UseCompressedOops, align 1
  %3 = trunc i8 %2 to i1
  %4 = getelementptr inbounds i8, ptr %0, i64 24
  %5 = load ptr, ptr %4, align 8
  %6 = tail call noundef ptr @_ZN8Universe27swap_reference_pending_listEP7oopDesc(ptr noundef %5) #14
  br i1 %3, label %7, label %20

7:                                                ; preds = %1
  %8 = icmp eq ptr %6, null
  %9 = load ptr, ptr @_ZN14CompressedOops11_narrow_oopE, align 8
  %10 = ptrtoint ptr %6 to i64
  %11 = ptrtoint ptr %9 to i64
  %12 = sub i64 %10, %11
  %13 = load i32, ptr getelementptr inbounds (i8, ptr @_ZN14CompressedOops11_narrow_oopE, i64 8), align 8
  %14 = zext nneg i32 %13 to i64
  %15 = lshr i64 %12, %14
  %16 = trunc i64 %15 to i32
  %17 = select i1 %8, i32 0, i32 %16
  %18 = getelementptr inbounds i8, ptr %0, i64 32
  %19 = load ptr, ptr %18, align 8
  store i32 %17, ptr %19, align 4
  br label %23

20:                                               ; preds = %1
  %21 = getelementptr inbounds i8, ptr %0, i64 32
  %22 = load ptr, ptr %21, align 8
  store ptr %6, ptr %22, align 8
  br label %23

23:                                               ; preds = %20, %7
  ret void
}